target datalayout = "e-m:e-p270:32:32-p271:32:32-p272:64:64-i64:64-i128:128-f80:128-n8:16:32:64-S128"
target triple = "x86_64-pc-linux-gnu"

$_Z12jdouble_castl = comdat any

$_Z11jfloat_casti = comdat any

@_ZL11min_jdouble = internal global double 0.000000e+00, align 8
@_ZL11max_jdouble = internal global double 0.000000e+00, align 8
@_ZL10min_jfloat = internal global float 0.000000e+00, align 4
@_ZL10max_jfloat = internal global float 0.000000e+00, align 4
@llvm.global_ctors = appending global [1 x { i32, ptr, ptr }] [{ i32, ptr, ptr } { i32 65535, ptr @_GLOBAL__sub_I_xVirtualMemory_posix.cpp, ptr null }]

; Function Attrs: nounwind uwtable
define internal void @__cxx_global_var_init() #0 section ".text.startup" {
  %1 = call noundef double @_Z12jdouble_castl(i64 noundef 1)
  store double %1, ptr @_ZL11min_jdouble, align 8
  ret void
}

; Function Attrs: mustprogress nounwind uwtable
define linkonce_odr hidden noundef double @_Z12jdouble_castl(i64 noundef %0) #1 comdat {
  %2 = alloca i64, align 8
  store i64 %0, ptr %2, align 8
  %3 = load double, ptr %2, align 8
  ret double %3
}

; Function Attrs: nounwind uwtable
define internal void @__cxx_global_var_init.1() #0 section ".text.startup" {
  %1 = call noundef double @_Z12jdouble_castl(i64 noundef 9218868437227405311)
  store double %1, ptr @_ZL11max_jdouble, align 8
  ret void
}

; Function Attrs: nounwind uwtable
define internal void @__cxx_global_var_init.2() #0 section ".text.startup" {
  %1 = call noundef float @_Z11jfloat_casti(i32 noundef 1)
  store float %1, ptr @_ZL10min_jfloat, align 4
  ret void
}

; Function Attrs: mustprogress nounwind uwtable
define linkonce_odr hidden noundef float @_Z11jfloat_casti(i32 noundef %0) #1 comdat {
  %2 = alloca i32, align 4
  store i32 %0, ptr %2, align 4
  %3 = load float, ptr %2, align 4
  ret float %3
}

; Function Attrs: nounwind uwtable
define internal void @__cxx_global_var_init.3() #0 section ".text.startup" {
  %1 = call noundef float @_Z11jfloat_casti(i32 noundef 2139095039)
  store float %1, ptr @_ZL10max_jfloat, align 4
  ret void
}

; Function Attrs: mustprogress nounwind uwtable
define hidden void @_ZN21XVirtualMemoryManager28pd_initialize_before_reserveEv(ptr noundef nonnull align 8 dereferenceable(121) %0) #1 align 2 {
  %2 = alloca ptr, align 8
  store ptr %0, ptr %2, align 8
  ret void
}

; Function Attrs: mustprogress nounwind uwtable
define hidden void @_ZN21XVirtualMemoryManager27pd_initialize_after_reserveEv(ptr noundef nonnull align 8 dereferenceable(121) %0) #1 align 2 {
  %2 = alloca ptr, align 8
  store ptr %0, ptr %2, align 8
  ret void
}

; Function Attrs: mustprogress nounwind uwtable
define hidden noundef zeroext i1 @_ZN21XVirtualMemoryManager10pd_reserveEmm(ptr noundef nonnull align 8 dereferenceable(121) %0, i64 noundef %1, i64 noundef %2) #1 align 2 {
  %4 = alloca i1, align 1
  %5 = alloca ptr, align 8
  %6 = alloca i64, align 8
  %7 = alloca i64, align 8
  %8 = alloca i64, align 8
  store ptr %0, ptr %5, align 8
  store i64 %1, ptr %6, align 8
  store i64 %2, ptr %7, align 8
  %9 = load i64, ptr %6, align 8
  %10 = inttoptr i64 %9 to ptr
  %11 = load i64, ptr %7, align 8
  %12 = call ptr @mmap64(ptr noundef %10, i64 noundef %11, i32 noundef 0, i32 noundef 16418, i32 noundef -1, i64 noundef 0) #3
  %13 = ptrtoint ptr %12 to i64
  store i64 %13, ptr %8, align 8
  %14 = load i64, ptr %8, align 8
  %15 = icmp eq i64 %14, -1
  br i1 %15, label %16, label %17

16:                                               ; preds = %3
  store i1 false, ptr %4, align 1
  br label %27

17:                                               ; preds = %3
  %18 = load i64, ptr %8, align 8
  %19 = load i64, ptr %6, align 8
  %20 = icmp ne i64 %18, %19
  br i1 %20, label %21, label %26

21:                                               ; preds = %17
  %22 = load i64, ptr %8, align 8
  %23 = inttoptr i64 %22 to ptr
  %24 = load i64, ptr %7, align 8
  %25 = call i32 @munmap(ptr noundef %23, i64 noundef %24) #3
  store i1 false, ptr %4, align 1
  br label %27

26:                                               ; preds = %17
  store i1 true, ptr %4, align 1
  br label %27

27:                                               ; preds = %26, %21, %16
  %28 = load i1, ptr %4, align 1
  ret i1 %28
}

; Function Attrs: nounwind
declare ptr @mmap64(ptr noundef, i64 noundef, i32 noundef, i32 noundef, i32 noundef, i64 noundef) #2

; Function Attrs: nounwind
declare i32 @munmap(ptr noundef, i64 noundef) #2

; Function Attrs: mustprogress nounwind uwtable
define hidden void @_ZN21XVirtualMemoryManager12pd_unreserveEmm(ptr noundef nonnull align 8 dereferenceable(121) %0, i64 noundef %1, i64 noundef %2) #1 align 2 {
  %4 = alloca ptr, align 8
  %5 = alloca i64, align 8
  %6 = alloca i64, align 8
  %7 = alloca i32, align 4
  store ptr %0, ptr %4, align 8
  store i64 %1, ptr %5, align 8
  store i64 %2, ptr %6, align 8
  %8 = load i64, ptr %5, align 8
  %9 = inttoptr i64 %8 to ptr
  %10 = load i64, ptr %6, align 8
  %11 = call i32 @munmap(ptr noundef %9, i64 noundef %10) #3
  store i32 %11, ptr %7, align 4
  ret void
}

; Function Attrs: nounwind uwtable
define internal void @_GLOBAL__sub_I_xVirtualMemory_posix.cpp() #0 section ".text.startup" {
  call void @__cxx_global_var_init()
  call void @__cxx_global_var_init.1()
  call void @__cxx_global_var_init.2()
  call void @__cxx_global_var_init.3()
  ret void
}


!llvm.module.flags = !{!0, !1, !2, !3, !4, !5}

!0 = !{i32 7, !"Dwarf Version", i32 5}
!1 = !{i32 2, !"Debug Info Version", i32 3}
!2 = !{i32 1, !"wchar_size", i32 4}
!3 = !{i32 8, !"PIC Level", i32 2}
!4 = !{i32 7, !"uwtable", i32 2}
!5 = !{i32 7, !"frame-pointer", i32 2}
